; Function Attrs: nounwind uwtable
define internal zeroext i1 @GENERIC_RemoveStoragePath(ptr noundef %0, ptr noundef %1) #0 {
  %3 = alloca ptr, align 8
  call void @llvm.lifetime.start.p0(i64 8, ptr nonnull %3) #4
  store ptr null, ptr %3, align 8
  %.not.i = icmp eq ptr %0, null
  %4 = select i1 %.not.i, ptr @.str.6, ptr %0
  %5 = call i32 (ptr, ptr, ...) @SDL_asprintf_REAL(ptr noundef nonnull %3, ptr noundef nonnull @.str.4, ptr noundef nonnull %4, ptr noundef %1) #4
  %6 = load ptr, ptr %3, align 8
  call void @llvm.lifetime.end.p0(i64 8, ptr nonnull %3) #4
  %.not = icmp eq ptr %6, null
  br i1 %.not, label %9, label %7

7:                                                ; preds = %2
  %8 = call zeroext i1 @SDL_RemovePath_REAL(ptr noundef nonnull %6) #4
  call void @SDL_free_REAL(ptr noundef nonnull %6) #4
  br label %9

9:                                                ; preds = %7, %2
  %.0 = phi i1 [ %8, %7 ], [ false, %2 ]
  ret i1 %.0
}